; Function Attrs: nofree norecurse nosync nounwind memory(argmem: readwrite) uwtable
define hidden void @python_hashlib_Hacl_Hash_Blake2b_update_multi(i32 noundef %0, ptr noundef captures(none) %1, ptr noundef captures(none) %2, i64 %3, i64 %4, ptr noundef readonly captures(none) %5, i32 noundef %6) local_unnamed_addr #3 {
  %.not = icmp eq i32 %6, 0
  br i1 %.not, label %._crit_edge, label %.lr.ph.preheader

.lr.ph.preheader:                                 ; preds = %7
  %wide.trip.count = zext i32 %6 to i64
  br label %.lr.ph

._crit_edge:                                      ; preds = %.lr.ph, %7
  ret void

.lr.ph:                                           ; preds = %.lr.ph.preheader, %.lr.ph
  %indvars.iv = phi i64 [ 0, %.lr.ph.preheader ], [ %indvars.iv.next, %.lr.ph ]
  %indvars.iv.next = add nuw nsw i64 %indvars.iv, 1
  %8 = shl i64 %indvars.iv.next, 7
  %9 = and i64 %8, 4294967168
  %10 = add i64 %3, %9
  %11 = xor i64 %10, -1
  %12 = and i64 %3, %11
  %13 = lshr i64 %12, 63
  %14 = add i64 %13, %4
  %15 = shl i64 %indvars.iv, 7
  %16 = and i64 %15, 4294967168
  %17 = getelementptr i8, ptr %5, i64 %16
  tail call fastcc void @update_block(ptr noundef %1, ptr noundef %2, i1 noundef zeroext false, i1 noundef zeroext false, i64 %10, i64 %14, ptr noundef %17)
  %exitcond.not = icmp eq i64 %indvars.iv.next, %wide.trip.count
  br i1 %exitcond.not, label %._crit_edge, label %.lr.ph, !llvm.loop !7
}